target datalayout = "e-m:e-p270:32:32-p271:32:32-p272:64:64-i64:64-i128:128-f80:128-n8:16:32:64-S128"
target triple = "x86_64-pc-linux-gnu"

; Function Attrs: alwaysinline nounwind willreturn memory(none) uwtable
define internal zeroext i8 @av_clip_uint8_c(i32 noundef %0) #7 {
  %2 = alloca i8, align 1
  %3 = alloca i32, align 4
  store i32 %0, ptr %3, align 4, !tbaa !13
  %4 = load i32, ptr %3, align 4, !tbaa !13
  %5 = and i32 %4, -256
  %6 = icmp ne i32 %5, 0
  br i1 %6, label %7, label %12

7:                                                ; preds = %1
  %8 = load i32, ptr %3, align 4, !tbaa !13
  %9 = xor i32 %8, -1
  %10 = ashr i32 %9, 31
  %11 = trunc i32 %10 to i8
  store i8 %11, ptr %2, align 1
  br label %15

12:                                               ; preds = %1
  %13 = load i32, ptr %3, align 4, !tbaa !13
  %14 = trunc i32 %13 to i8
  store i8 %14, ptr %2, align 1
  br label %15

15:                                               ; preds = %12, %7
  %16 = load i8, ptr %2, align 1
  ret i8 %16
}

; Function Attrs: alwaysinline nounwind uwtable
define internal void @vp3_h_loop_filter_c(ptr noundef %0, i64 noundef %1, ptr noundef %2, i32 noundef %3) #1 {
  %5 = alloca ptr, align 8
  %6 = alloca i64, align 8
  %7 = alloca ptr, align 8
  %8 = alloca i32, align 4
  %9 = alloca ptr, align 8
  %10 = alloca i32, align 4
  store ptr %0, ptr %5, align 8, !tbaa !4
  store i64 %1, ptr %6, align 8, !tbaa !9
  store ptr %2, ptr %7, align 8, !tbaa !21
  store i32 %3, ptr %8, align 4, !tbaa !13
  call void @llvm.lifetime.start.p0(i64 8, ptr %9) #9
  call void @llvm.lifetime.start.p0(i64 4, ptr %10) #9
  %11 = load ptr, ptr %5, align 8, !tbaa !4
  %12 = load i32, ptr %8, align 4, !tbaa !13
  %13 = sext i32 %12 to i64
  %14 = load i64, ptr %6, align 8, !tbaa !9
  %15 = mul nsw i64 %13, %14
  %16 = getelementptr inbounds i8, ptr %11, i64 %15
  store ptr %16, ptr %9, align 8, !tbaa !4
  br label %17

17:                                               ; preds = %67, %4
  %18 = load ptr, ptr %5, align 8, !tbaa !4
  %19 = load ptr, ptr %9, align 8, !tbaa !4
  %20 = icmp ne ptr %18, %19
  br i1 %20, label %21, label %71

21:                                               ; preds = %17
  %22 = load ptr, ptr %5, align 8, !tbaa !4
  %23 = getelementptr inbounds i8, ptr %22, i64 -2
  %24 = load i8, ptr %23, align 1, !tbaa !19
  %25 = zext i8 %24 to i32
  %26 = load ptr, ptr %5, align 8, !tbaa !4
  %27 = getelementptr inbounds i8, ptr %26, i64 1
  %28 = load i8, ptr %27, align 1, !tbaa !19
  %29 = zext i8 %28 to i32
  %30 = sub nsw i32 %25, %29
  %31 = load ptr, ptr %5, align 8, !tbaa !4
  %32 = getelementptr inbounds i8, ptr %31, i64 0
  %33 = load i8, ptr %32, align 1, !tbaa !19
  %34 = zext i8 %33 to i32
  %35 = load ptr, ptr %5, align 8, !tbaa !4
  %36 = getelementptr inbounds i8, ptr %35, i64 -1
  %37 = load i8, ptr %36, align 1, !tbaa !19
  %38 = zext i8 %37 to i32
  %39 = sub nsw i32 %34, %38
  %40 = mul nsw i32 %39, 3
  %41 = add nsw i32 %30, %40
  store i32 %41, ptr %10, align 4, !tbaa !13
  %42 = load ptr, ptr %7, align 8, !tbaa !21
  %43 = load i32, ptr %10, align 4, !tbaa !13
  %44 = add nsw i32 %43, 4
  %45 = ashr i32 %44, 3
  %46 = sext i32 %45 to i64
  %47 = getelementptr inbounds i32, ptr %42, i64 %46
  %48 = load i32, ptr %47, align 4, !tbaa !13
  store i32 %48, ptr %10, align 4, !tbaa !13
  %49 = load ptr, ptr %5, align 8, !tbaa !4
  %50 = getelementptr inbounds i8, ptr %49, i64 -1
  %51 = load i8, ptr %50, align 1, !tbaa !19
  %52 = zext i8 %51 to i32
  %53 = load i32, ptr %10, align 4, !tbaa !13
  %54 = add nsw i32 %52, %53
  %55 = call zeroext i8 @av_clip_uint8_c(i32 noundef %54) #10
  %56 = load ptr, ptr %5, align 8, !tbaa !4
  %57 = getelementptr inbounds i8, ptr %56, i64 -1
  store i8 %55, ptr %57, align 1, !tbaa !19
  %58 = load ptr, ptr %5, align 8, !tbaa !4
  %59 = getelementptr inbounds i8, ptr %58, i64 0
  %60 = load i8, ptr %59, align 1, !tbaa !19
  %61 = zext i8 %60 to i32
  %62 = load i32, ptr %10, align 4, !tbaa !13
  %63 = sub nsw i32 %61, %62
  %64 = call zeroext i8 @av_clip_uint8_c(i32 noundef %63) #10
  %65 = load ptr, ptr %5, align 8, !tbaa !4
  %66 = getelementptr inbounds i8, ptr %65, i64 0
  store i8 %64, ptr %66, align 1, !tbaa !19
  br label %67

67:                                               ; preds = %21
  %68 = load i64, ptr %6, align 8, !tbaa !9
  %69 = load ptr, ptr %5, align 8, !tbaa !4
  %70 = getelementptr inbounds i8, ptr %69, i64 %68
  store ptr %70, ptr %5, align 8, !tbaa !4
  br label %17, !llvm.loop !24

71:                                               ; preds = %17
  call void @llvm.lifetime.end.p0(i64 4, ptr %10) #9
  call void @llvm.lifetime.end.p0(i64 8, ptr %9) #9
  ret void
}

; Function Attrs: nounwind uwtable
define internal void @vp3_h_loop_filter_8_c(ptr noundef %0, i64 noundef %1, ptr noundef %2) #0 {
  %4 = alloca ptr, align 8
  %5 = alloca i64, align 8
  %6 = alloca ptr, align 8
  store ptr %0, ptr %4, align 8, !tbaa !4
  store i64 %1, ptr %5, align 8, !tbaa !9
  store ptr %2, ptr %6, align 8, !tbaa !21
  %7 = load ptr, ptr %4, align 8, !tbaa !4
  %8 = load i64, ptr %5, align 8, !tbaa !9
  %9 = load ptr, ptr %6, align 8, !tbaa !21
  call void @vp3_h_loop_filter_c(ptr noundef %7, i64 noundef %8, ptr noundef %9, i32 noundef 8)
  ret void
}