; Function Attrs: nofree norecurse nosync nounwind memory(argmem: readwrite) uwtable
define internal void @vp3_h_loop_filter_8_c(ptr noundef captures(address) %0, i64 noundef %1, ptr noundef readonly captures(none) %2) #0 {
  %4 = shl nsw i64 %1, 3
  %5 = getelementptr inbounds i8, ptr %0, i64 %4
  %.not.i7 = icmp eq i64 %1, 0
  br i1 %.not.i7, label %vp3_h_loop_filter_c.exit, label %.lr.ph

.lr.ph:                                           ; preds = %3, %.lr.ph
  %.0.i8 = phi ptr [ %32, %.lr.ph ], [ %0, %3 ]
  %6 = getelementptr inbounds i8, ptr %.0.i8, i64 -2
  %7 = load i8, ptr %6, align 1, !tbaa !10
  %8 = zext i8 %7 to i32
  %9 = getelementptr inbounds nuw i8, ptr %.0.i8, i64 1
  %10 = load i8, ptr %9, align 1, !tbaa !10
  %11 = zext i8 %10 to i32
  %12 = load i8, ptr %.0.i8, align 1, !tbaa !10
  %13 = zext i8 %12 to i32
  %14 = getelementptr inbounds i8, ptr %.0.i8, i64 -1
  %15 = load i8, ptr %14, align 1, !tbaa !10
  %16 = zext i8 %15 to i32
  %17 = sub nsw i32 %13, %16
  %18 = mul nsw i32 %17, 3
  %19 = add nuw nsw i32 %8, 4
  %20 = sub nsw i32 %19, %11
  %21 = add nsw i32 %20, %18
  %22 = ashr i32 %21, 3
  %23 = sext i32 %22 to i64
  %24 = getelementptr inbounds i32, ptr %2, i64 %23
  %25 = load i32, ptr %24, align 4, !tbaa !12
  %26 = add nsw i32 %25, %16
  %.not.i4 = icmp ult i32 %26, 256
  %isnotneg.i5 = icmp sgt i32 %26, -1
  %27 = sext i1 %isnotneg.i5 to i8
  %28 = trunc nuw i32 %26 to i8
  %.0.i6 = select i1 %.not.i4, i8 %28, i8 %27
  store i8 %.0.i6, ptr %14, align 1, !tbaa !10
  %29 = sub nsw i32 %13, %25
  %.not.i2 = icmp ult i32 %29, 256
  %isnotneg.i = icmp sgt i32 %29, -1
  %30 = sext i1 %isnotneg.i to i8
  %31 = trunc nuw i32 %29 to i8
  %.0.i3 = select i1 %.not.i2, i8 %31, i8 %30
  store i8 %.0.i3, ptr %.0.i8, align 1, !tbaa !10
  %32 = getelementptr inbounds i8, ptr %.0.i8, i64 %1
  %.not.i = icmp eq ptr %32, %5
  br i1 %.not.i, label %vp3_h_loop_filter_c.exit, label %.lr.ph, !llvm.loop !15

vp3_h_loop_filter_c.exit:                         ; preds = %.lr.ph, %3
  ret void
}